; Function Attrs: mustprogress nofree norecurse nosync nounwind willreturn memory(read, inaccessiblemem: none) uwtable
define hidden noundef zeroext i1 @_ZNK3mbp10term_graph7term_eqclEPKNS_4termES4_(ptr noundef nonnull readnone align 1 captures(none) dereferenceable(1) %0, ptr noundef readonly captures(none) %1, ptr noundef readonly captures(none) %2) local_unnamed_addr #8 align 2 {
  %4 = load ptr, ptr %1, align 8, !tbaa !79
  %5 = getelementptr inbounds nuw i8, ptr %4, i64 4
  %6 = load i32, ptr %5, align 4
  %7 = and i32 %6, 65535
  %8 = icmp eq i32 %7, 0
  br i1 %8, label %9, label %_ZNK3mbp4term11get_decl_idEv.exit.i

9:                                                ; preds = %3
  %10 = getelementptr inbounds nuw i8, ptr %4, i64 16
  %11 = load ptr, ptr %10, align 8, !tbaa !48
  br label %_ZNK3mbp4term11get_decl_idEv.exit.i

_ZNK3mbp4term11get_decl_idEv.exit.i:              ; preds = %9, %3
  %.in.i.i = phi ptr [ %11, %9 ], [ %4, %3 ]
  %12 = load i32, ptr %.in.i.i, align 4, !tbaa !94
  %13 = load ptr, ptr %2, align 8, !tbaa !79
  %14 = getelementptr inbounds nuw i8, ptr %13, i64 4
  %15 = load i32, ptr %14, align 4
  %16 = and i32 %15, 65535
  %17 = icmp eq i32 %16, 0
  br i1 %17, label %18, label %_ZNK3mbp4term11get_decl_idEv.exit18.i

18:                                               ; preds = %_ZNK3mbp4term11get_decl_idEv.exit.i
  %19 = getelementptr inbounds nuw i8, ptr %13, i64 16
  %20 = load ptr, ptr %19, align 8, !tbaa !48
  br label %_ZNK3mbp4term11get_decl_idEv.exit18.i

_ZNK3mbp4term11get_decl_idEv.exit18.i:            ; preds = %18, %_ZNK3mbp4term11get_decl_idEv.exit.i
  %.in.i17.i = phi ptr [ %20, %18 ], [ %13, %_ZNK3mbp4term11get_decl_idEv.exit.i ]
  %21 = load i32, ptr %.in.i17.i, align 4, !tbaa !94
  %.not.i = icmp eq i32 %12, %21
  br i1 %.not.i, label %22, label %_ZN3mbp4term5cg_eqEPKS0_S2_.exit

22:                                               ; preds = %_ZNK3mbp4term11get_decl_idEv.exit18.i
  %23 = getelementptr inbounds nuw i8, ptr %1, i64 56
  %24 = load ptr, ptr %23, align 8, !tbaa !45
  %25 = icmp eq ptr %24, null
  br i1 %25, label %_ZNK6vectorIPN3mbp4termELb0EjE4sizeEv.exit.i, label %26

26:                                               ; preds = %22
  %27 = getelementptr inbounds i8, ptr %24, i64 -4
  %28 = load i32, ptr %27, align 4, !tbaa !34
  br label %_ZNK6vectorIPN3mbp4termELb0EjE4sizeEv.exit.i

_ZNK6vectorIPN3mbp4termELb0EjE4sizeEv.exit.i:     ; preds = %26, %22
  %.0.i.i = phi i32 [ %28, %26 ], [ 0, %22 ]
  %29 = getelementptr inbounds nuw i8, ptr %2, i64 56
  %30 = load ptr, ptr %29, align 8, !tbaa !45
  %31 = icmp eq ptr %30, null
  br i1 %31, label %_ZNK6vectorIPN3mbp4termELb0EjE4sizeEv.exit20.i, label %32

32:                                               ; preds = %_ZNK6vectorIPN3mbp4termELb0EjE4sizeEv.exit.i
  %33 = getelementptr inbounds i8, ptr %30, i64 -4
  %34 = load i32, ptr %33, align 4, !tbaa !34
  br label %_ZNK6vectorIPN3mbp4termELb0EjE4sizeEv.exit20.i

_ZNK6vectorIPN3mbp4termELb0EjE4sizeEv.exit20.i:   ; preds = %32, %_ZNK6vectorIPN3mbp4termELb0EjE4sizeEv.exit.i
  %.0.i19.i = phi i32 [ %34, %32 ], [ 0, %_ZNK6vectorIPN3mbp4termELb0EjE4sizeEv.exit.i ]
  %.not15.i = icmp ne i32 %.0.i.i, %.0.i19.i
  %brmerge.i = or i1 %25, %.not15.i
  %not..not15.i = xor i1 %.not15.i, true
  br i1 %brmerge.i, label %_ZN3mbp4term5cg_eqEPKS0_S2_.exit, label %_ZNK6vectorIPN3mbp4termELb0EjE4sizeEv.exit22.i

_ZNK6vectorIPN3mbp4termELb0EjE4sizeEv.exit22.i:   ; preds = %_ZNK6vectorIPN3mbp4termELb0EjE4sizeEv.exit20.i
  %35 = getelementptr inbounds i8, ptr %24, i64 -4
  %36 = load i32, ptr %35, align 4, !tbaa !34
  %37 = icmp eq i32 %36, 0
  br i1 %37, label %_ZN3mbp4term5cg_eqEPKS0_S2_.exit, label %.lr.ph.preheader.i

.lr.ph.preheader.i:                               ; preds = %_ZNK6vectorIPN3mbp4termELb0EjE4sizeEv.exit22.i
  %wide.trip.count.i = zext i32 %36 to i64
  br label %.lr.ph.i

.lr.ph.i:                                         ; preds = %.lr.ph.i, %.lr.ph.preheader.i
  %indvars.iv.i = phi i64 [ 0, %.lr.ph.preheader.i ], [ %indvars.iv.next.i, %.lr.ph.i ]
  %38 = getelementptr inbounds nuw ptr, ptr %24, i64 %indvars.iv.i
  %39 = load ptr, ptr %38, align 8, !tbaa !46
  %40 = getelementptr inbounds nuw i8, ptr %39, i64 16
  %41 = load ptr, ptr %40, align 8, !tbaa !19
  %42 = load ptr, ptr %41, align 8, !tbaa !79
  %43 = load i32, ptr %42, align 4, !tbaa !94
  %44 = getelementptr inbounds nuw ptr, ptr %30, i64 %indvars.iv.i
  %45 = load ptr, ptr %44, align 8, !tbaa !46
  %46 = getelementptr inbounds nuw i8, ptr %45, i64 16
  %47 = load ptr, ptr %46, align 8, !tbaa !19
  %48 = load ptr, ptr %47, align 8, !tbaa !79
  %49 = load i32, ptr %48, align 4, !tbaa !94
  %.not16.i = icmp eq i32 %43, %49
  %indvars.iv.next.i = add nuw nsw i64 %indvars.iv.i, 1
  %exitcond.not.i = icmp ne i64 %indvars.iv.next.i, %wide.trip.count.i
  %or.cond.not = select i1 %.not16.i, i1 %exitcond.not.i, i1 false
  br i1 %or.cond.not, label %.lr.ph.i, label %_ZN3mbp4term5cg_eqEPKS0_S2_.exit, !llvm.loop !95

_ZN3mbp4term5cg_eqEPKS0_S2_.exit:                 ; preds = %.lr.ph.i, %_ZNK3mbp4term11get_decl_idEv.exit18.i, %_ZNK6vectorIPN3mbp4termELb0EjE4sizeEv.exit20.i, %_ZNK6vectorIPN3mbp4termELb0EjE4sizeEv.exit22.i
  %.013.i = phi i1 [ false, %_ZNK3mbp4term11get_decl_idEv.exit18.i ], [ %not..not15.i, %_ZNK6vectorIPN3mbp4termELb0EjE4sizeEv.exit20.i ], [ true, %_ZNK6vectorIPN3mbp4termELb0EjE4sizeEv.exit22.i ], [ %.not16.i, %.lr.ph.i ]
  ret i1 %.013.i
}